target datalayout = "e-m:e-p270:32:32-p271:32:32-p272:64:64-i64:64-i128:128-f80:128-n8:16:32:64-S128"
target triple = "x86_64-pc-linux-gnu"

%struct.redisReplyObjectFunctions = type { ptr, ptr, ptr, ptr, ptr, ptr, ptr }
%struct.redisContextFuncs = type { ptr, ptr, ptr, ptr, ptr, ptr }
%struct.redisContext = type { ptr, i32, [128 x i8], i32, i32, ptr, ptr, i32, ptr, ptr, %struct.anon, %struct.anon.0, ptr, i64, ptr, ptr, ptr, ptr }
%struct.anon = type { ptr, ptr, i32 }
%struct.anon.0 = type { ptr }

@defaultFunctions = internal global %struct.redisReplyObjectFunctions { ptr @createStringObject, ptr @createArrayObject, ptr @createIntegerObject, ptr @createDoubleObject, ptr @createNilObject, ptr @createBoolObject, ptr @freeReplyObject }, align 8
@.str.7 = private unnamed_addr constant [14 x i8] c"Out of memory\00", align 1
@.str.8 = private unnamed_addr constant [36 x i8] c"Not enough information to reconnect\00", align 1

; Function Attrs: nounwind uwtable
define void @__redisSetError(ptr noundef %0, i32 noundef %1, ptr noundef %2) #0 {
  %4 = alloca ptr, align 8
  %5 = alloca i32, align 4
  %6 = alloca ptr, align 8
  %7 = alloca i64, align 8
  store ptr %0, ptr %4, align 8, !tbaa !40
  store i32 %1, ptr %5, align 4, !tbaa !29
  store ptr %2, ptr %6, align 8, !tbaa !26
  call void @llvm.lifetime.start.p0(i64 8, ptr %7) #10
  %8 = load i32, ptr %5, align 4, !tbaa !29
  %9 = load ptr, ptr %4, align 8, !tbaa !40
  %10 = getelementptr inbounds nuw %struct.redisContext, ptr %9, i32 0, i32 1
  store i32 %8, ptr %10, align 8, !tbaa !42
  %11 = load ptr, ptr %6, align 8, !tbaa !26
  %12 = icmp ne ptr %11, null
  br i1 %12, label %13, label %32

13:                                               ; preds = %3
  %14 = load ptr, ptr %6, align 8, !tbaa !26
  %15 = call i64 @strlen(ptr noundef %14) #11
  store i64 %15, ptr %7, align 8, !tbaa !19
  %16 = load i64, ptr %7, align 8, !tbaa !19
  %17 = icmp ult i64 %16, 127
  br i1 %17, label %18, label %20

18:                                               ; preds = %13
  %19 = load i64, ptr %7, align 8, !tbaa !19
  br label %21

20:                                               ; preds = %13
  br label %21

21:                                               ; preds = %20, %18
  %22 = phi i64 [ %19, %18 ], [ 127, %20 ]
  store i64 %22, ptr %7, align 8, !tbaa !19
  %23 = load ptr, ptr %4, align 8, !tbaa !40
  %24 = getelementptr inbounds nuw %struct.redisContext, ptr %23, i32 0, i32 2
  %25 = getelementptr inbounds [128 x i8], ptr %24, i64 0, i64 0
  %26 = load ptr, ptr %6, align 8, !tbaa !26
  %27 = load i64, ptr %7, align 8, !tbaa !19
  call void @llvm.memcpy.p0.p0.i64(ptr align 4 %25, ptr align 1 %26, i64 %27, i1 false)
  %28 = load ptr, ptr %4, align 8, !tbaa !40
  %29 = getelementptr inbounds nuw %struct.redisContext, ptr %28, i32 0, i32 2
  %30 = load i64, ptr %7, align 8, !tbaa !19
  %31 = getelementptr inbounds nuw [128 x i8], ptr %29, i64 0, i64 %30
  store i8 0, ptr %31, align 1, !tbaa !30
  br label %39

32:                                               ; preds = %3
  %33 = call ptr @__errno_location() #12
  %34 = load i32, ptr %33, align 4, !tbaa !29
  %35 = load ptr, ptr %4, align 8, !tbaa !40
  %36 = getelementptr inbounds nuw %struct.redisContext, ptr %35, i32 0, i32 2
  %37 = getelementptr inbounds [128 x i8], ptr %36, i64 0, i64 0
  %38 = call i32 @__xpg_strerror_r(i32 noundef %34, ptr noundef %37, i64 noundef 128) #10
  br label %39

39:                                               ; preds = %32, %21
  call void @llvm.lifetime.end.p0(i64 8, ptr %7) #10
  ret void
}

; Function Attrs: nounwind uwtable
define ptr @redisReaderCreate() #0 {
  %1 = call ptr @redisReaderCreateWithFunctions(ptr noundef @defaultFunctions)
  ret ptr %1
}

; Function Attrs: nounwind uwtable
define i32 @redisReconnect(ptr noundef %0) #0 {
  %2 = alloca i32, align 4
  %3 = alloca ptr, align 8
  %4 = alloca i32, align 4
  store ptr %0, ptr %3, align 8, !tbaa !40
  %5 = load ptr, ptr %3, align 8, !tbaa !40
  %6 = getelementptr inbounds nuw %struct.redisContext, ptr %5, i32 0, i32 1
  store i32 0, ptr %6, align 8, !tbaa !42
  %7 = load ptr, ptr %3, align 8, !tbaa !40
  %8 = getelementptr inbounds nuw %struct.redisContext, ptr %7, i32 0, i32 2
  %9 = getelementptr inbounds [128 x i8], ptr %8, i64 0, i64 0
  %10 = load ptr, ptr %3, align 8, !tbaa !40
  %11 = getelementptr inbounds nuw %struct.redisContext, ptr %10, i32 0, i32 2
  %12 = getelementptr inbounds [128 x i8], ptr %11, i64 0, i64 0
  %13 = call i64 @strlen(ptr noundef %12) #11
  call void @llvm.memset.p0.i64(ptr align 4 %9, i8 0, i64 %13, i1 false)
  %14 = load ptr, ptr %3, align 8, !tbaa !40
  %15 = getelementptr inbounds nuw %struct.redisContext, ptr %14, i32 0, i32 16
  %16 = load ptr, ptr %15, align 8, !tbaa !64
  %17 = icmp ne ptr %16, null
  br i1 %17, label %18, label %36

18:                                               ; preds = %1
  %19 = load ptr, ptr %3, align 8, !tbaa !40
  %20 = getelementptr inbounds nuw %struct.redisContext, ptr %19, i32 0, i32 0
  %21 = load ptr, ptr %20, align 8, !tbaa !50
  %22 = getelementptr inbounds nuw %struct.redisContextFuncs, ptr %21, i32 0, i32 1
  %23 = load ptr, ptr %22, align 8, !tbaa !63
  %24 = icmp ne ptr %23, null
  br i1 %24, label %25, label %36

25:                                               ; preds = %18
  %26 = load ptr, ptr %3, align 8, !tbaa !40
  %27 = getelementptr inbounds nuw %struct.redisContext, ptr %26, i32 0, i32 0
  %28 = load ptr, ptr %27, align 8, !tbaa !50
  %29 = getelementptr inbounds nuw %struct.redisContextFuncs, ptr %28, i32 0, i32 1
  %30 = load ptr, ptr %29, align 8, !tbaa !63
  %31 = load ptr, ptr %3, align 8, !tbaa !40
  %32 = getelementptr inbounds nuw %struct.redisContext, ptr %31, i32 0, i32 16
  %33 = load ptr, ptr %32, align 8, !tbaa !64
  call void %30(ptr noundef %33)
  %34 = load ptr, ptr %3, align 8, !tbaa !40
  %35 = getelementptr inbounds nuw %struct.redisContext, ptr %34, i32 0, i32 16
  store ptr null, ptr %35, align 8, !tbaa !64
  br label %36

36:                                               ; preds = %25, %18, %1
  %37 = load ptr, ptr %3, align 8, !tbaa !40
  %38 = getelementptr inbounds nuw %struct.redisContext, ptr %37, i32 0, i32 0
  %39 = load ptr, ptr %38, align 8, !tbaa !50
  %40 = icmp ne ptr %39, null
  br i1 %40, label %41, label %55

41:                                               ; preds = %36
  %42 = load ptr, ptr %3, align 8, !tbaa !40
  %43 = getelementptr inbounds nuw %struct.redisContext, ptr %42, i32 0, i32 0
  %44 = load ptr, ptr %43, align 8, !tbaa !50
  %45 = getelementptr inbounds nuw %struct.redisContextFuncs, ptr %44, i32 0, i32 0
  %46 = load ptr, ptr %45, align 8, !tbaa !51
  %47 = icmp ne ptr %46, null
  br i1 %47, label %48, label %55

48:                                               ; preds = %41
  %49 = load ptr, ptr %3, align 8, !tbaa !40
  %50 = getelementptr inbounds nuw %struct.redisContext, ptr %49, i32 0, i32 0
  %51 = load ptr, ptr %50, align 8, !tbaa !50
  %52 = getelementptr inbounds nuw %struct.redisContextFuncs, ptr %51, i32 0, i32 0
  %53 = load ptr, ptr %52, align 8, !tbaa !51
  %54 = load ptr, ptr %3, align 8, !tbaa !40
  call void %53(ptr noundef %54)
  br label %55

55:                                               ; preds = %48, %41, %36
  %56 = load ptr, ptr %3, align 8, !tbaa !40
  %57 = getelementptr inbounds nuw %struct.redisContext, ptr %56, i32 0, i32 5
  %58 = load ptr, ptr %57, align 8, !tbaa !53
  call void @hi_sdsfree(ptr noundef %58)
  %59 = load ptr, ptr %3, align 8, !tbaa !40
  %60 = getelementptr inbounds nuw %struct.redisContext, ptr %59, i32 0, i32 6
  %61 = load ptr, ptr %60, align 8, !tbaa !54
  call void @redisReaderFree(ptr noundef %61)
  %62 = call ptr @hi_sdsempty()
  %63 = load ptr, ptr %3, align 8, !tbaa !40
  %64 = getelementptr inbounds nuw %struct.redisContext, ptr %63, i32 0, i32 5
  store ptr %62, ptr %64, align 8, !tbaa !53
  %65 = call ptr @redisReaderCreate()
  %66 = load ptr, ptr %3, align 8, !tbaa !40
  %67 = getelementptr inbounds nuw %struct.redisContext, ptr %66, i32 0, i32 6
  store ptr %65, ptr %67, align 8, !tbaa !54
  %68 = load ptr, ptr %3, align 8, !tbaa !40
  %69 = getelementptr inbounds nuw %struct.redisContext, ptr %68, i32 0, i32 5
  %70 = load ptr, ptr %69, align 8, !tbaa !53
  %71 = icmp eq ptr %70, null
  br i1 %71, label %77, label %72

72:                                               ; preds = %55
  %73 = load ptr, ptr %3, align 8, !tbaa !40
  %74 = getelementptr inbounds nuw %struct.redisContext, ptr %73, i32 0, i32 6
  %75 = load ptr, ptr %74, align 8, !tbaa !54
  %76 = icmp eq ptr %75, null
  br i1 %76, label %77, label %79

77:                                               ; preds = %72, %55
  %78 = load ptr, ptr %3, align 8, !tbaa !40
  call void @__redisSetError(ptr noundef %78, i32 noundef 5, ptr noundef @.str.7)
  store i32 -1, ptr %2, align 4
  br label %148

79:                                               ; preds = %72
  call void @llvm.lifetime.start.p0(i64 4, ptr %4) #10
  store i32 -1, ptr %4, align 4, !tbaa !29
  %80 = load ptr, ptr %3, align 8, !tbaa !40
  %81 = getelementptr inbounds nuw %struct.redisContext, ptr %80, i32 0, i32 7
  %82 = load i32, ptr %81, align 8, !tbaa !66
  %83 = icmp eq i32 %82, 0
  br i1 %83, label %84, label %102

84:                                               ; preds = %79
  %85 = load ptr, ptr %3, align 8, !tbaa !40
  %86 = load ptr, ptr %3, align 8, !tbaa !40
  %87 = getelementptr inbounds nuw %struct.redisContext, ptr %86, i32 0, i32 10
  %88 = getelementptr inbounds nuw %struct.anon, ptr %87, i32 0, i32 0
  %89 = load ptr, ptr %88, align 8, !tbaa !55
  %90 = load ptr, ptr %3, align 8, !tbaa !40
  %91 = getelementptr inbounds nuw %struct.redisContext, ptr %90, i32 0, i32 10
  %92 = getelementptr inbounds nuw %struct.anon, ptr %91, i32 0, i32 2
  %93 = load i32, ptr %92, align 8, !tbaa !67
  %94 = load ptr, ptr %3, align 8, !tbaa !40
  %95 = getelementptr inbounds nuw %struct.redisContext, ptr %94, i32 0, i32 8
  %96 = load ptr, ptr %95, align 8, !tbaa !58
  %97 = load ptr, ptr %3, align 8, !tbaa !40
  %98 = getelementptr inbounds nuw %struct.redisContext, ptr %97, i32 0, i32 10
  %99 = getelementptr inbounds nuw %struct.anon, ptr %98, i32 0, i32 1
  %100 = load ptr, ptr %99, align 8, !tbaa !56
  %101 = call i32 @redisContextConnectBindTcp(ptr noundef %85, ptr noundef %89, i32 noundef %93, ptr noundef %96, ptr noundef %100)
  store i32 %101, ptr %4, align 4, !tbaa !29
  br label %120

102:                                              ; preds = %79
  %103 = load ptr, ptr %3, align 8, !tbaa !40
  %104 = getelementptr inbounds nuw %struct.redisContext, ptr %103, i32 0, i32 7
  %105 = load i32, ptr %104, align 8, !tbaa !66
  %106 = icmp eq i32 %105, 1
  br i1 %106, label %107, label %117

107:                                              ; preds = %102
  %108 = load ptr, ptr %3, align 8, !tbaa !40
  %109 = load ptr, ptr %3, align 8, !tbaa !40
  %110 = getelementptr inbounds nuw %struct.redisContext, ptr %109, i32 0, i32 11
  %111 = getelementptr inbounds nuw %struct.anon.0, ptr %110, i32 0, i32 0
  %112 = load ptr, ptr %111, align 8, !tbaa !57
  %113 = load ptr, ptr %3, align 8, !tbaa !40
  %114 = getelementptr inbounds nuw %struct.redisContext, ptr %113, i32 0, i32 8
  %115 = load ptr, ptr %114, align 8, !tbaa !58
  %116 = call i32 @redisContextConnectUnix(ptr noundef %108, ptr noundef %112, ptr noundef %115)
  store i32 %116, ptr %4, align 4, !tbaa !29
  br label %119

117:                                              ; preds = %102
  %118 = load ptr, ptr %3, align 8, !tbaa !40
  call void @__redisSetError(ptr noundef %118, i32 noundef 2, ptr noundef @.str.8)
  store i32 -1, ptr %4, align 4, !tbaa !29
  br label %119

119:                                              ; preds = %117, %107
  br label %120

120:                                              ; preds = %119, %84
  %121 = load ptr, ptr %3, align 8, !tbaa !40
  %122 = getelementptr inbounds nuw %struct.redisContext, ptr %121, i32 0, i32 9
  %123 = load ptr, ptr %122, align 8, !tbaa !59
  %124 = icmp ne ptr %123, null
  br i1 %124, label %125, label %146

125:                                              ; preds = %120
  %126 = load ptr, ptr %3, align 8, !tbaa !40
  %127 = getelementptr inbounds nuw %struct.redisContext, ptr %126, i32 0, i32 4
  %128 = load i32, ptr %127, align 8, !tbaa !68
  %129 = and i32 %128, 1
  %130 = icmp ne i32 %129, 0
  br i1 %130, label %131, label %146

131:                                              ; preds = %125
  %132 = load ptr, ptr %3, align 8, !tbaa !40
  %133 = getelementptr inbounds nuw %struct.redisContext, ptr %132, i32 0, i32 3
  %134 = load i32, ptr %133, align 4, !tbaa !65
  %135 = icmp ne i32 %134, -1
  br i1 %135, label %136, label %146

136:                                              ; preds = %131
  %137 = load ptr, ptr %3, align 8, !tbaa !40
  %138 = load ptr, ptr %3, align 8, !tbaa !40
  %139 = getelementptr inbounds nuw %struct.redisContext, ptr %138, i32 0, i32 9
  %140 = load ptr, ptr %139, align 8, !tbaa !59
  %141 = getelementptr inbounds nuw { i64, i64 }, ptr %140, i32 0, i32 0
  %142 = load i64, ptr %141, align 8
  %143 = getelementptr inbounds nuw { i64, i64 }, ptr %140, i32 0, i32 1
  %144 = load i64, ptr %143, align 8
  %145 = call i32 @redisContextSetTimeout(ptr noundef %137, i64 %142, i64 %144)
  br label %146

146:                                              ; preds = %136, %131, %125, %120
  %147 = load i32, ptr %4, align 4, !tbaa !29
  store i32 %147, ptr %2, align 4
  call void @llvm.lifetime.end.p0(i64 4, ptr %4) #10
  br label %148

148:                                              ; preds = %146, %77
  %149 = load i32, ptr %2, align 4
  ret i32 %149
}