; Function Attrs: nounwind uwtable
define i32 @redisReconnect(ptr noundef initializes((8, 12)) %0) local_unnamed_addr #0 {
  %2 = getelementptr inbounds nuw i8, ptr %0, i64 8
  store i32 0, ptr %2, align 8, !tbaa !32
  %3 = getelementptr inbounds nuw i8, ptr %0, i64 12
  %4 = tail call i64 @strlen(ptr noundef nonnull dereferenceable(1) %3) #14
  tail call void @llvm.memset.p0.i64(ptr nonnull align 4 %3, i8 0, i64 %4, i1 false)
  %5 = getelementptr inbounds nuw i8, ptr %0, i64 256
  %6 = load ptr, ptr %5, align 8, !tbaa !54
  %.not = icmp eq ptr %6, null
  br i1 %.not, label %12, label %7

7:                                                ; preds = %1
  %8 = load ptr, ptr %0, align 8, !tbaa !40
  %9 = getelementptr inbounds nuw i8, ptr %8, i64 8
  %10 = load ptr, ptr %9, align 8, !tbaa !53
  %.not43 = icmp eq ptr %10, null
  br i1 %.not43, label %.thread, label %11

11:                                               ; preds = %7
  tail call void %10(ptr noundef nonnull %6) #13
  store ptr null, ptr %5, align 8, !tbaa !54
  br label %12

12:                                               ; preds = %11, %1
  %.pr = load ptr, ptr %0, align 8, !tbaa !40
  %.not44 = icmp eq ptr %.pr, null
  br i1 %.not44, label %16, label %.thread

.thread:                                          ; preds = %7, %12
  %13 = phi ptr [ %.pr, %12 ], [ %8, %7 ]
  %14 = load ptr, ptr %13, align 8, !tbaa !41
  %.not45 = icmp eq ptr %14, null
  br i1 %.not45, label %16, label %15

15:                                               ; preds = %.thread
  tail call void %14(ptr noundef nonnull %0) #13
  br label %16

16:                                               ; preds = %15, %.thread, %12
  %17 = getelementptr inbounds nuw i8, ptr %0, i64 152
  %18 = load ptr, ptr %17, align 8, !tbaa !43
  tail call void @hi_sdsfree(ptr noundef %18) #13
  %19 = getelementptr inbounds nuw i8, ptr %0, i64 160
  %20 = load ptr, ptr %19, align 8, !tbaa !44
  tail call void @redisReaderFree(ptr noundef %20) #13
  %21 = tail call ptr @hi_sdsempty() #13
  store ptr %21, ptr %17, align 8, !tbaa !43
  %22 = tail call ptr @redisReaderCreateWithFunctions(ptr noundef nonnull @defaultFunctions) #13
  store ptr %22, ptr %19, align 8, !tbaa !44
  %23 = load ptr, ptr %17, align 8, !tbaa !43
  %24 = icmp eq ptr %23, null
  %25 = icmp eq ptr %22, null
  %or.cond = select i1 %24, i1 true, i1 %25
  br i1 %or.cond, label %26, label %28

26:                                               ; preds = %16
  store i32 5, ptr %2, align 8, !tbaa !32
  tail call void @llvm.memcpy.p0.p0.i64(ptr noundef nonnull align 4 dereferenceable(13) %3, ptr noundef nonnull align 1 dereferenceable(13) @.str.7, i64 13, i1 false)
  %27 = getelementptr inbounds nuw i8, ptr %0, i64 25
  store i8 0, ptr %27, align 1, !tbaa !22
  br label %64

28:                                               ; preds = %16
  %29 = getelementptr inbounds nuw i8, ptr %0, i64 168
  %30 = load i32, ptr %29, align 8, !tbaa !56
  switch i32 %30, label %47 [
    i32 0, label %31
    i32 1, label %41
  ]

31:                                               ; preds = %28
  %32 = getelementptr inbounds nuw i8, ptr %0, i64 192
  %33 = load ptr, ptr %32, align 8, !tbaa !45
  %34 = getelementptr inbounds nuw i8, ptr %0, i64 208
  %35 = load i32, ptr %34, align 8, !tbaa !57
  %36 = getelementptr inbounds nuw i8, ptr %0, i64 176
  %37 = load ptr, ptr %36, align 8, !tbaa !48
  %38 = getelementptr inbounds nuw i8, ptr %0, i64 200
  %39 = load ptr, ptr %38, align 8, !tbaa !46
  %40 = tail call i32 @redisContextConnectBindTcp(ptr noundef nonnull %0, ptr noundef %33, i32 noundef %35, ptr noundef %37, ptr noundef %39) #13
  br label %49

41:                                               ; preds = %28
  %42 = getelementptr inbounds nuw i8, ptr %0, i64 216
  %43 = load ptr, ptr %42, align 8, !tbaa !47
  %44 = getelementptr inbounds nuw i8, ptr %0, i64 176
  %45 = load ptr, ptr %44, align 8, !tbaa !48
  %46 = tail call i32 @redisContextConnectUnix(ptr noundef nonnull %0, ptr noundef %43, ptr noundef %45) #13
  br label %49

47:                                               ; preds = %28
  store i32 2, ptr %2, align 8, !tbaa !32
  tail call void @llvm.memcpy.p0.p0.i64(ptr noundef nonnull align 4 dereferenceable(35) %3, ptr noundef nonnull align 1 dereferenceable(35) @.str.8, i64 35, i1 false)
  %48 = getelementptr inbounds nuw i8, ptr %0, i64 47
  store i8 0, ptr %48, align 1, !tbaa !22
  br label %49

49:                                               ; preds = %41, %47, %31
  %.0 = phi i32 [ %40, %31 ], [ %46, %41 ], [ -1, %47 ]
  %50 = getelementptr inbounds nuw i8, ptr %0, i64 184
  %51 = load ptr, ptr %50, align 8, !tbaa !49
  %.not46 = icmp eq ptr %51, null
  br i1 %.not46, label %64, label %52

52:                                               ; preds = %49
  %53 = getelementptr inbounds nuw i8, ptr %0, i64 144
  %54 = load i32, ptr %53, align 8, !tbaa !58
  %55 = and i32 %54, 1
  %.not47 = icmp eq i32 %55, 0
  br i1 %.not47, label %64, label %56

56:                                               ; preds = %52
  %57 = getelementptr inbounds nuw i8, ptr %0, i64 140
  %58 = load i32, ptr %57, align 4, !tbaa !55
  %.not48 = icmp eq i32 %58, -1
  br i1 %.not48, label %64, label %59

59:                                               ; preds = %56
  %60 = load i64, ptr %51, align 8
  %61 = getelementptr inbounds nuw i8, ptr %51, i64 8
  %62 = load i64, ptr %61, align 8
  %63 = tail call i32 @redisContextSetTimeout(ptr noundef nonnull %0, i64 %60, i64 %62) #13
  br label %64

64:                                               ; preds = %49, %52, %56, %59, %26
  %.036 = phi i32 [ -1, %26 ], [ %.0, %59 ], [ %.0, %56 ], [ %.0, %52 ], [ %.0, %49 ]
  ret i32 %.036
}